; Function Attrs: mustprogress nofree norecurse nosync nounwind willreturn memory(read, inaccessiblemem: none) uwtable
define hidden ptr @_ZN4cvc58internal6theory9Valuation8factsEndENS1_8TheoryIdE(ptr noundef nonnull readonly align 8 captures(none) dereferenceable(8) %0, i32 noundef %1) local_unnamed_addr #9 align 2 {
  %3 = load ptr, ptr %0, align 8, !tbaa !3
  %4 = getelementptr inbounds nuw i8, ptr %3, i64 24
  %5 = zext i32 %1 to i64
  %6 = getelementptr inbounds nuw [14 x ptr], ptr %4, i64 0, i64 %5
  %7 = load ptr, ptr %6, align 8, !tbaa !156
  %8 = getelementptr inbounds nuw i8, ptr %7, i64 184
  %9 = load ptr, ptr %8, align 8, !tbaa !158
  ret ptr %9
}